target datalayout = "e-m:e-p270:32:32-p271:32:32-p272:64:64-i64:64-i128:128-f80:128-n8:16:32:64-S128"
target triple = "x86_64-pc-linux-gnu"

%"class.igl::opengl::glfw::Viewer" = type { i32, %"class.std::vector", i64, i32, ptr, %"class.std::vector.1", i64, i32, %"class.std::vector.6", [8 x i8], %"class.Eigen::Quaternion", i32, i32, i32, i32, float, %"class.Eigen::Matrix.13", i8, i8, float, %"class.std::function", %"class.std::function", %"class.std::function", %"class.std::function.23", %"class.std::function.23", %"class.std::function.23", %"class.std::function.25", %"class.std::function.27", %"class.std::function.23", %"class.std::function.27", %"class.std::function.27", ptr, ptr, ptr, ptr, ptr, ptr, ptr, ptr, ptr, ptr, [8 x i8] }
%"class.std::vector" = type { %"struct.std::_Vector_base" }
%"struct.std::_Vector_base" = type { %"struct.std::_Vector_base<igl::opengl::ViewerData, std::allocator<igl::opengl::ViewerData>>::_Vector_impl" }
%"struct.std::_Vector_base<igl::opengl::ViewerData, std::allocator<igl::opengl::ViewerData>>::_Vector_impl" = type { %"struct.std::_Vector_base<igl::opengl::ViewerData, std::allocator<igl::opengl::ViewerData>>::_Vector_impl_data" }
%"struct.std::_Vector_base<igl::opengl::ViewerData, std::allocator<igl::opengl::ViewerData>>::_Vector_impl_data" = type { ptr, ptr, ptr }
%"class.std::vector.1" = type { %"struct.std::_Vector_base.2" }
%"struct.std::_Vector_base.2" = type { %"struct.std::_Vector_base<igl::opengl::ViewerCore, std::allocator<igl::opengl::ViewerCore>>::_Vector_impl" }
%"struct.std::_Vector_base<igl::opengl::ViewerCore, std::allocator<igl::opengl::ViewerCore>>::_Vector_impl" = type { %"struct.std::_Vector_base<igl::opengl::ViewerCore, std::allocator<igl::opengl::ViewerCore>>::_Vector_impl_data" }
%"struct.std::_Vector_base<igl::opengl::ViewerCore, std::allocator<igl::opengl::ViewerCore>>::_Vector_impl_data" = type { ptr, ptr, ptr }
%"class.std::vector.6" = type { %"struct.std::_Vector_base.7" }
%"struct.std::_Vector_base.7" = type { %"struct.std::_Vector_base<igl::opengl::glfw::ViewerPlugin *, std::allocator<igl::opengl::glfw::ViewerPlugin *>>::_Vector_impl" }
%"struct.std::_Vector_base<igl::opengl::glfw::ViewerPlugin *, std::allocator<igl::opengl::glfw::ViewerPlugin *>>::_Vector_impl" = type { %"struct.std::_Vector_base<igl::opengl::glfw::ViewerPlugin *, std::allocator<igl::opengl::glfw::ViewerPlugin *>>::_Vector_impl_data" }
%"struct.std::_Vector_base<igl::opengl::glfw::ViewerPlugin *, std::allocator<igl::opengl::glfw::ViewerPlugin *>>::_Vector_impl_data" = type { ptr, ptr, ptr }
%"class.Eigen::Quaternion" = type { %"class.Eigen::Matrix" }
%"class.Eigen::Matrix" = type { %"class.Eigen::PlainObjectBase" }
%"class.Eigen::PlainObjectBase" = type { %"class.Eigen::DenseStorage" }
%"class.Eigen::DenseStorage" = type { %"struct.Eigen::internal::plain_array" }
%"struct.Eigen::internal::plain_array" = type { [4 x float] }
%"class.Eigen::Matrix.13" = type { %"class.Eigen::PlainObjectBase.14" }
%"class.Eigen::PlainObjectBase.14" = type { %"class.Eigen::DenseStorage.21" }
%"class.Eigen::DenseStorage.21" = type { %"struct.Eigen::internal::plain_array.22" }
%"struct.Eigen::internal::plain_array.22" = type { [3 x float] }
%"class.std::function" = type { %"class.std::_Function_base", ptr }
%"class.std::_Function_base" = type { %"union.std::_Any_data", ptr }
%"union.std::_Any_data" = type { %"union.std::_Nocopy_types" }
%"union.std::_Nocopy_types" = type { { i64, i64 } }
%"class.std::function.25" = type { %"class.std::_Function_base", ptr }
%"class.std::function.23" = type { %"class.std::_Function_base", ptr }
%"class.std::function.27" = type { %"class.std::_Function_base", ptr }

; Function Attrs: mustprogress nounwind uwtable
define linkonce_odr dso_local noundef nonnull align 8 dereferenceable(8) ptr @_ZNSt6vectorIPN3igl6opengl4glfw12ViewerPluginESaIS4_EEixEm(ptr noundef nonnull align 8 dereferenceable(24) %0, i64 noundef %1) #1 comdat align 2 {
  %3 = alloca ptr, align 8
  %4 = alloca i64, align 8
  store ptr %0, ptr %3, align 8, !tbaa !165
  store i64 %1, ptr %4, align 8, !tbaa !130
  %5 = load ptr, ptr %3, align 8
  %6 = getelementptr inbounds nuw %"struct.std::_Vector_base.7", ptr %5, i32 0, i32 0
  %7 = getelementptr inbounds nuw %"struct.std::_Vector_base<igl::opengl::glfw::ViewerPlugin *, std::allocator<igl::opengl::glfw::ViewerPlugin *>>::_Vector_impl_data", ptr %6, i32 0, i32 0
  %8 = load ptr, ptr %7, align 8, !tbaa !168
  %9 = load i64, ptr %4, align 8, !tbaa !130
  %10 = getelementptr inbounds nuw ptr, ptr %8, i64 %9
  ret ptr %10
}

; Function Attrs: mustprogress nounwind uwtable
define linkonce_odr dso_local noundef i64 @_ZNKSt6vectorIPN3igl6opengl4glfw12ViewerPluginESaIS4_EE4sizeEv(ptr noundef nonnull align 8 dereferenceable(24) %0) #1 comdat align 2 {
  %2 = alloca ptr, align 8
  store ptr %0, ptr %2, align 8, !tbaa !165
  %3 = load ptr, ptr %2, align 8
  %4 = getelementptr inbounds nuw %"struct.std::_Vector_base.7", ptr %3, i32 0, i32 0
  %5 = getelementptr inbounds nuw %"struct.std::_Vector_base<igl::opengl::glfw::ViewerPlugin *, std::allocator<igl::opengl::glfw::ViewerPlugin *>>::_Vector_impl_data", ptr %4, i32 0, i32 1
  %6 = load ptr, ptr %5, align 8, !tbaa !167
  %7 = getelementptr inbounds nuw %"struct.std::_Vector_base.7", ptr %3, i32 0, i32 0
  %8 = getelementptr inbounds nuw %"struct.std::_Vector_base<igl::opengl::glfw::ViewerPlugin *, std::allocator<igl::opengl::glfw::ViewerPlugin *>>::_Vector_impl_data", ptr %7, i32 0, i32 0
  %9 = load ptr, ptr %8, align 8, !tbaa !168
  %10 = ptrtoint ptr %6 to i64
  %11 = ptrtoint ptr %9 to i64
  %12 = sub i64 %10, %11
  %13 = sdiv exact i64 %12, 8
  ret i64 %13
}

; Function Attrs: mustprogress uwtable
define dso_local void @_ZN3igl6opengl4glfw6Viewer16shutdown_pluginsEv(ptr noundef nonnull align 16 dereferenceable(616) %0) #3 align 2 {
  %2 = alloca ptr, align 8
  %3 = alloca i32, align 4
  store ptr %0, ptr %2, align 8, !tbaa !15
  %4 = load ptr, ptr %2, align 8
  call void @llvm.lifetime.start.p0(i64 4, ptr %3) #26
  store i32 0, ptr %3, align 4, !tbaa !21
  br label %5

5:                                                ; preds = %21, %1
  %6 = load i32, ptr %3, align 4, !tbaa !21
  %7 = zext i32 %6 to i64
  %8 = getelementptr inbounds nuw %"class.igl::opengl::glfw::Viewer", ptr %4, i32 0, i32 8
  %9 = call noundef i64 @_ZNKSt6vectorIPN3igl6opengl4glfw12ViewerPluginESaIS4_EE4sizeEv(ptr noundef nonnull align 8 dereferenceable(24) %8) #26
  %10 = icmp ult i64 %7, %9
  br i1 %10, label %12, label %11

11:                                               ; preds = %5
  call void @llvm.lifetime.end.p0(i64 4, ptr %3) #26
  br label %24

12:                                               ; preds = %5
  %13 = getelementptr inbounds nuw %"class.igl::opengl::glfw::Viewer", ptr %4, i32 0, i32 8
  %14 = load i32, ptr %3, align 4, !tbaa !21
  %15 = zext i32 %14 to i64
  %16 = call noundef nonnull align 8 dereferenceable(8) ptr @_ZNSt6vectorIPN3igl6opengl4glfw12ViewerPluginESaIS4_EEixEm(ptr noundef nonnull align 8 dereferenceable(24) %13, i64 noundef %15) #26
  %17 = load ptr, ptr %16, align 8, !tbaa !144
  %18 = load ptr, ptr %17, align 8, !tbaa !146
  %19 = getelementptr inbounds ptr, ptr %18, i64 3
  %20 = load ptr, ptr %19, align 8
  call void %20(ptr noundef nonnull align 8 dereferenceable(48) %17)
  br label %21

21:                                               ; preds = %12
  %22 = load i32, ptr %3, align 4, !tbaa !21
  %23 = add i32 %22, 1
  store i32 %23, ptr %3, align 4, !tbaa !21
  br label %5, !llvm.loop !160

24:                                               ; preds = %11
  ret void
}