; Function Attrs: mustprogress uwtable
define dso_local void @_ZN3igl6opengl4glfw6Viewer16shutdown_pluginsEv(ptr noundef nonnull readonly align 16 captures(none) dereferenceable(616) %0) local_unnamed_addr #0 align 2 {
  %2 = getelementptr inbounds nuw i8, ptr %0, i64 96
  %3 = getelementptr inbounds nuw i8, ptr %0, i64 104
  %4 = load ptr, ptr %3, align 8, !tbaa !11
  %5 = load ptr, ptr %2, align 16, !tbaa !15
  %.not = icmp eq ptr %4, %5
  br i1 %.not, label %._crit_edge, label %.lr.ph

._crit_edge:                                      ; preds = %.lr.ph, %1
  ret void

.lr.ph:                                           ; preds = %1, %.lr.ph
  %6 = phi ptr [ %16, %.lr.ph ], [ %5, %1 ]
  %7 = phi i64 [ %14, %.lr.ph ], [ 0, %1 ]
  %.04 = phi i32 [ %13, %.lr.ph ], [ 0, %1 ]
  %8 = getelementptr inbounds nuw ptr, ptr %6, i64 %7
  %9 = load ptr, ptr %8, align 8, !tbaa !16
  %10 = load ptr, ptr %9, align 8, !tbaa !18
  %11 = getelementptr inbounds nuw i8, ptr %10, i64 24
  %12 = load ptr, ptr %11, align 8
  tail call void %12(ptr noundef nonnull align 8 dereferenceable(48) %9)
  %13 = add i32 %.04, 1
  %14 = zext i32 %13 to i64
  %15 = load ptr, ptr %3, align 8, !tbaa !11
  %16 = load ptr, ptr %2, align 16, !tbaa !15
  %17 = ptrtoint ptr %15 to i64
  %18 = ptrtoint ptr %16 to i64
  %19 = sub i64 %17, %18
  %20 = ashr exact i64 %19, 3
  %21 = icmp ugt i64 %20, %14
  br i1 %21, label %.lr.ph, label %._crit_edge, !llvm.loop !20
}